target datalayout = "e-m:e-p270:32:32-p271:32:32-p272:64:64-i64:64-i128:128-f80:128-n8:16:32:64-S128"
target triple = "x86_64-pc-linux-gnu"

%struct.cJSON = type { ptr, ptr, ptr, i32, ptr, i32, double, ptr }

; Function Attrs: nounwind sspstrong uwtable
define internal i32 @compare_double(double noundef %0, double noundef %1) #0 {
  %3 = alloca double, align 8
  %4 = alloca double, align 8
  %5 = alloca double, align 8
  store double %0, ptr %3, align 8, !tbaa !31
  store double %1, ptr %4, align 8, !tbaa !31
  call void @llvm.lifetime.start.p0(i64 8, ptr %5) #10
  %6 = load double, ptr %3, align 8, !tbaa !31
  %7 = call double @llvm.fabs.f64(double %6)
  %8 = load double, ptr %4, align 8, !tbaa !31
  %9 = call double @llvm.fabs.f64(double %8)
  %10 = fcmp ogt double %7, %9
  br i1 %10, label %11, label %14

11:                                               ; preds = %2
  %12 = load double, ptr %3, align 8, !tbaa !31
  %13 = call double @llvm.fabs.f64(double %12)
  br label %17

14:                                               ; preds = %2
  %15 = load double, ptr %4, align 8, !tbaa !31
  %16 = call double @llvm.fabs.f64(double %15)
  br label %17

17:                                               ; preds = %14, %11
  %18 = phi double [ %13, %11 ], [ %16, %14 ]
  store double %18, ptr %5, align 8, !tbaa !31
  %19 = load double, ptr %3, align 8, !tbaa !31
  %20 = load double, ptr %4, align 8, !tbaa !31
  %21 = fsub double %19, %20
  %22 = call double @llvm.fabs.f64(double %21)
  %23 = load double, ptr %5, align 8, !tbaa !31
  %24 = fmul double %23, 0x3CB0000000000000
  %25 = fcmp ole double %22, %24
  %26 = zext i1 %25 to i32
  call void @llvm.lifetime.end.p0(i64 8, ptr %5) #10
  ret i32 %26
}

; Function Attrs: nounwind sspstrong uwtable
define i32 @cJSON_Compare(ptr noundef %0, ptr noundef %1, i32 noundef %2) #0 {
  %4 = alloca i32, align 4
  %5 = alloca ptr, align 8
  %6 = alloca ptr, align 8
  %7 = alloca i32, align 4
  %8 = alloca ptr, align 8
  %9 = alloca ptr, align 8
  %10 = alloca i32, align 4
  %11 = alloca ptr, align 8
  %12 = alloca ptr, align 8
  store ptr %0, ptr %5, align 8, !tbaa !11
  store ptr %1, ptr %6, align 8, !tbaa !11
  store i32 %2, ptr %7, align 4, !tbaa !40
  %13 = load ptr, ptr %5, align 8, !tbaa !11
  %14 = icmp eq ptr %13, null
  br i1 %14, label %28, label %15

15:                                               ; preds = %3
  %16 = load ptr, ptr %6, align 8, !tbaa !11
  %17 = icmp eq ptr %16, null
  br i1 %17, label %28, label %18

18:                                               ; preds = %15
  %19 = load ptr, ptr %5, align 8, !tbaa !11
  %20 = getelementptr inbounds nuw %struct.cJSON, ptr %19, i32 0, i32 3
  %21 = load i32, ptr %20, align 8, !tbaa !17
  %22 = and i32 %21, 255
  %23 = load ptr, ptr %6, align 8, !tbaa !11
  %24 = getelementptr inbounds nuw %struct.cJSON, ptr %23, i32 0, i32 3
  %25 = load i32, ptr %24, align 8, !tbaa !17
  %26 = and i32 %25, 255
  %27 = icmp ne i32 %22, %26
  br i1 %27, label %28, label %29

28:                                               ; preds = %18, %15, %3
  store i32 0, ptr %4, align 4
  br label %189

29:                                               ; preds = %18
  %30 = load ptr, ptr %5, align 8, !tbaa !11
  %31 = getelementptr inbounds nuw %struct.cJSON, ptr %30, i32 0, i32 3
  %32 = load i32, ptr %31, align 8, !tbaa !17
  %33 = and i32 %32, 255
  switch i32 %33, label %35 [
    i32 1, label %34
    i32 2, label %34
    i32 4, label %34
    i32 8, label %34
    i32 16, label %34
    i32 128, label %34
    i32 32, label %34
    i32 64, label %34
  ]

34:                                               ; preds = %29, %29, %29, %29, %29, %29, %29, %29
  br label %36

35:                                               ; preds = %29
  store i32 0, ptr %4, align 4
  br label %189

36:                                               ; preds = %34
  %37 = load ptr, ptr %5, align 8, !tbaa !11
  %38 = load ptr, ptr %6, align 8, !tbaa !11
  %39 = icmp eq ptr %37, %38
  br i1 %39, label %40, label %41

40:                                               ; preds = %36
  store i32 1, ptr %4, align 4
  br label %189

41:                                               ; preds = %36
  %42 = load ptr, ptr %5, align 8, !tbaa !11
  %43 = getelementptr inbounds nuw %struct.cJSON, ptr %42, i32 0, i32 3
  %44 = load i32, ptr %43, align 8, !tbaa !17
  %45 = and i32 %44, 255
  switch i32 %45, label %188 [
    i32 1, label %46
    i32 2, label %46
    i32 4, label %46
    i32 8, label %47
    i32 16, label %58
    i32 128, label %58
    i32 32, label %80
    i32 64, label %116
  ]

46:                                               ; preds = %41, %41, %41
  store i32 1, ptr %4, align 4
  br label %189

47:                                               ; preds = %41
  %48 = load ptr, ptr %5, align 8, !tbaa !11
  %49 = getelementptr inbounds nuw %struct.cJSON, ptr %48, i32 0, i32 6
  %50 = load double, ptr %49, align 8, !tbaa !18
  %51 = load ptr, ptr %6, align 8, !tbaa !11
  %52 = getelementptr inbounds nuw %struct.cJSON, ptr %51, i32 0, i32 6
  %53 = load double, ptr %52, align 8, !tbaa !18
  %54 = call i32 @compare_double(double noundef %50, double noundef %53)
  %55 = icmp ne i32 %54, 0
  br i1 %55, label %56, label %57

56:                                               ; preds = %47
  store i32 1, ptr %4, align 4
  br label %189

57:                                               ; preds = %47
  store i32 0, ptr %4, align 4
  br label %189

58:                                               ; preds = %41, %41
  %59 = load ptr, ptr %5, align 8, !tbaa !11
  %60 = getelementptr inbounds nuw %struct.cJSON, ptr %59, i32 0, i32 4
  %61 = load ptr, ptr %60, align 8, !tbaa !13
  %62 = icmp eq ptr %61, null
  br i1 %62, label %68, label %63

63:                                               ; preds = %58
  %64 = load ptr, ptr %6, align 8, !tbaa !11
  %65 = getelementptr inbounds nuw %struct.cJSON, ptr %64, i32 0, i32 4
  %66 = load ptr, ptr %65, align 8, !tbaa !13
  %67 = icmp eq ptr %66, null
  br i1 %67, label %68, label %69

68:                                               ; preds = %63, %58
  store i32 0, ptr %4, align 4
  br label %189

69:                                               ; preds = %63
  %70 = load ptr, ptr %5, align 8, !tbaa !11
  %71 = getelementptr inbounds nuw %struct.cJSON, ptr %70, i32 0, i32 4
  %72 = load ptr, ptr %71, align 8, !tbaa !13
  %73 = load ptr, ptr %6, align 8, !tbaa !11
  %74 = getelementptr inbounds nuw %struct.cJSON, ptr %73, i32 0, i32 4
  %75 = load ptr, ptr %74, align 8, !tbaa !13
  %76 = call i32 @strcmp(ptr noundef %72, ptr noundef %75) #11
  %77 = icmp eq i32 %76, 0
  br i1 %77, label %78, label %79

78:                                               ; preds = %69
  store i32 1, ptr %4, align 4
  br label %189

79:                                               ; preds = %69
  store i32 0, ptr %4, align 4
  br label %189

80:                                               ; preds = %41
  call void @llvm.lifetime.start.p0(i64 8, ptr %8) #10
  %81 = load ptr, ptr %5, align 8, !tbaa !11
  %82 = getelementptr inbounds nuw %struct.cJSON, ptr %81, i32 0, i32 2
  %83 = load ptr, ptr %82, align 8, !tbaa !29
  store ptr %83, ptr %8, align 8, !tbaa !11
  call void @llvm.lifetime.start.p0(i64 8, ptr %9) #10
  %84 = load ptr, ptr %6, align 8, !tbaa !11
  %85 = getelementptr inbounds nuw %struct.cJSON, ptr %84, i32 0, i32 2
  %86 = load ptr, ptr %85, align 8, !tbaa !29
  store ptr %86, ptr %9, align 8, !tbaa !11
  br label %87

87:                                               ; preds = %102, %80
  %88 = load ptr, ptr %8, align 8, !tbaa !11
  %89 = icmp ne ptr %88, null
  br i1 %89, label %90, label %93

90:                                               ; preds = %87
  %91 = load ptr, ptr %9, align 8, !tbaa !11
  %92 = icmp ne ptr %91, null
  br label %93

93:                                               ; preds = %90, %87
  %94 = phi i1 [ false, %87 ], [ %92, %90 ]
  br i1 %94, label %95, label %109

95:                                               ; preds = %93
  %96 = load ptr, ptr %8, align 8, !tbaa !11
  %97 = load ptr, ptr %9, align 8, !tbaa !11
  %98 = load i32, ptr %7, align 4, !tbaa !40
  %99 = call i32 @cJSON_Compare(ptr noundef %96, ptr noundef %97, i32 noundef %98)
  %100 = icmp ne i32 %99, 0
  br i1 %100, label %102, label %101

101:                                              ; preds = %95
  store i32 0, ptr %4, align 4
  store i32 1, ptr %10, align 4
  br label %115

102:                                              ; preds = %95
  %103 = load ptr, ptr %8, align 8, !tbaa !11
  %104 = getelementptr inbounds nuw %struct.cJSON, ptr %103, i32 0, i32 0
  %105 = load ptr, ptr %104, align 8, !tbaa !28
  store ptr %105, ptr %8, align 8, !tbaa !11
  %106 = load ptr, ptr %9, align 8, !tbaa !11
  %107 = getelementptr inbounds nuw %struct.cJSON, ptr %106, i32 0, i32 0
  %108 = load ptr, ptr %107, align 8, !tbaa !28
  store ptr %108, ptr %9, align 8, !tbaa !11
  br label %87

109:                                              ; preds = %93
  %110 = load ptr, ptr %8, align 8, !tbaa !11
  %111 = load ptr, ptr %9, align 8, !tbaa !11
  %112 = icmp ne ptr %110, %111
  br i1 %112, label %113, label %114

113:                                              ; preds = %109
  store i32 0, ptr %4, align 4
  store i32 1, ptr %10, align 4
  br label %115

114:                                              ; preds = %109
  store i32 1, ptr %4, align 4
  store i32 1, ptr %10, align 4
  br label %115

115:                                              ; preds = %114, %113, %101
  call void @llvm.lifetime.end.p0(i64 8, ptr %9) #10
  call void @llvm.lifetime.end.p0(i64 8, ptr %8) #10
  br label %189

116:                                              ; preds = %41
  call void @llvm.lifetime.start.p0(i64 8, ptr %11) #10
  store ptr null, ptr %11, align 8, !tbaa !11
  call void @llvm.lifetime.start.p0(i64 8, ptr %12) #10
  store ptr null, ptr %12, align 8, !tbaa !11
  %117 = load ptr, ptr %5, align 8, !tbaa !11
  %118 = icmp ne ptr %117, null
  br i1 %118, label %119, label %123

119:                                              ; preds = %116
  %120 = load ptr, ptr %5, align 8, !tbaa !11
  %121 = getelementptr inbounds nuw %struct.cJSON, ptr %120, i32 0, i32 2
  %122 = load ptr, ptr %121, align 8, !tbaa !29
  br label %124

123:                                              ; preds = %116
  br label %124

124:                                              ; preds = %123, %119
  %125 = phi ptr [ %122, %119 ], [ null, %123 ]
  store ptr %125, ptr %11, align 8, !tbaa !11
  br label %126

126:                                              ; preds = %147, %124
  %127 = load ptr, ptr %11, align 8, !tbaa !11
  %128 = icmp ne ptr %127, null
  br i1 %128, label %129, label %151

129:                                              ; preds = %126
  %130 = load ptr, ptr %6, align 8, !tbaa !11
  %131 = load ptr, ptr %11, align 8, !tbaa !11
  %132 = getelementptr inbounds nuw %struct.cJSON, ptr %131, i32 0, i32 7
  %133 = load ptr, ptr %132, align 8, !tbaa !30
  %134 = load i32, ptr %7, align 4, !tbaa !40
  %135 = call ptr @get_object_item(ptr noundef %130, ptr noundef %133, i32 noundef %134)
  store ptr %135, ptr %12, align 8, !tbaa !11
  %136 = load ptr, ptr %12, align 8, !tbaa !11
  %137 = icmp eq ptr %136, null
  br i1 %137, label %138, label %139

138:                                              ; preds = %129
  store i32 0, ptr %4, align 4
  store i32 1, ptr %10, align 4
  br label %187

139:                                              ; preds = %129
  %140 = load ptr, ptr %11, align 8, !tbaa !11
  %141 = load ptr, ptr %12, align 8, !tbaa !11
  %142 = load i32, ptr %7, align 4, !tbaa !40
  %143 = call i32 @cJSON_Compare(ptr noundef %140, ptr noundef %141, i32 noundef %142)
  %144 = icmp ne i32 %143, 0
  br i1 %144, label %146, label %145

145:                                              ; preds = %139
  store i32 0, ptr %4, align 4
  store i32 1, ptr %10, align 4
  br label %187

146:                                              ; preds = %139
  br label %147

147:                                              ; preds = %146
  %148 = load ptr, ptr %11, align 8, !tbaa !11
  %149 = getelementptr inbounds nuw %struct.cJSON, ptr %148, i32 0, i32 0
  %150 = load ptr, ptr %149, align 8, !tbaa !28
  store ptr %150, ptr %11, align 8, !tbaa !11
  br label %126

151:                                              ; preds = %126
  %152 = load ptr, ptr %6, align 8, !tbaa !11
  %153 = icmp ne ptr %152, null
  br i1 %153, label %154, label %158

154:                                              ; preds = %151
  %155 = load ptr, ptr %6, align 8, !tbaa !11
  %156 = getelementptr inbounds nuw %struct.cJSON, ptr %155, i32 0, i32 2
  %157 = load ptr, ptr %156, align 8, !tbaa !29
  br label %159

158:                                              ; preds = %151
  br label %159

159:                                              ; preds = %158, %154
  %160 = phi ptr [ %157, %154 ], [ null, %158 ]
  store ptr %160, ptr %12, align 8, !tbaa !11
  br label %161

161:                                              ; preds = %182, %159
  %162 = load ptr, ptr %12, align 8, !tbaa !11
  %163 = icmp ne ptr %162, null
  br i1 %163, label %164, label %186

164:                                              ; preds = %161
  %165 = load ptr, ptr %5, align 8, !tbaa !11
  %166 = load ptr, ptr %12, align 8, !tbaa !11
  %167 = getelementptr inbounds nuw %struct.cJSON, ptr %166, i32 0, i32 7
  %168 = load ptr, ptr %167, align 8, !tbaa !30
  %169 = load i32, ptr %7, align 4, !tbaa !40
  %170 = call ptr @get_object_item(ptr noundef %165, ptr noundef %168, i32 noundef %169)
  store ptr %170, ptr %11, align 8, !tbaa !11
  %171 = load ptr, ptr %11, align 8, !tbaa !11
  %172 = icmp eq ptr %171, null
  br i1 %172, label %173, label %174

173:                                              ; preds = %164
  store i32 0, ptr %4, align 4
  store i32 1, ptr %10, align 4
  br label %187

174:                                              ; preds = %164
  %175 = load ptr, ptr %12, align 8, !tbaa !11
  %176 = load ptr, ptr %11, align 8, !tbaa !11
  %177 = load i32, ptr %7, align 4, !tbaa !40
  %178 = call i32 @cJSON_Compare(ptr noundef %175, ptr noundef %176, i32 noundef %177)
  %179 = icmp ne i32 %178, 0
  br i1 %179, label %181, label %180

180:                                              ; preds = %174
  store i32 0, ptr %4, align 4
  store i32 1, ptr %10, align 4
  br label %187

181:                                              ; preds = %174
  br label %182

182:                                              ; preds = %181
  %183 = load ptr, ptr %12, align 8, !tbaa !11
  %184 = getelementptr inbounds nuw %struct.cJSON, ptr %183, i32 0, i32 0
  %185 = load ptr, ptr %184, align 8, !tbaa !28
  store ptr %185, ptr %12, align 8, !tbaa !11
  br label %161

186:                                              ; preds = %161
  store i32 1, ptr %4, align 4
  store i32 1, ptr %10, align 4
  br label %187

187:                                              ; preds = %186, %180, %173, %145, %138
  call void @llvm.lifetime.end.p0(i64 8, ptr %12) #10
  call void @llvm.lifetime.end.p0(i64 8, ptr %11) #10
  br label %189

188:                                              ; preds = %41
  store i32 0, ptr %4, align 4
  br label %189

189:                                              ; preds = %188, %187, %115, %79, %78, %68, %57, %56, %46, %40, %35, %28
  %190 = load i32, ptr %4, align 4
  ret i32 %190
}