; Function Attrs: nofree nounwind sspstrong memory(read, inaccessiblemem: none) uwtable
define range(i32 0, 2) i32 @cJSON_Compare(ptr noundef readonly %0, ptr noundef readonly %1, i32 noundef %2) local_unnamed_addr #18 {
  %4 = icmp eq ptr %0, null
  %5 = icmp eq ptr %1, null
  %or.cond = or i1 %4, %5
  br i1 %or.cond, label %.loopexit, label %6

6:                                                ; preds = %3
  %7 = getelementptr inbounds nuw i8, ptr %0, i64 24
  %8 = load i32, ptr %7, align 8, !tbaa !11
  %9 = getelementptr inbounds nuw i8, ptr %1, i64 24
  %10 = load i32, ptr %9, align 8, !tbaa !11
  %11 = xor i32 %10, %8
  %12 = and i32 %11, 255
  %.not = icmp eq i32 %12, 0
  br i1 %.not, label %13, label %.loopexit

13:                                               ; preds = %6
  %trunc = trunc i32 %8 to i8
  switch i8 %trunc, label %.loopexit [
    i8 1, label %14
    i8 2, label %14
    i8 4, label %14
    i8 8, label %14
    i8 16, label %14
    i8 -128, label %14
    i8 32, label %14
    i8 64, label %14
  ]

14:                                               ; preds = %13, %13, %13, %13, %13, %13, %13, %13
  %15 = icmp eq ptr %0, %1
  br i1 %15, label %.loopexit, label %16

16:                                               ; preds = %14
  switch i8 %trunc, label %70 [
    i8 1, label %.loopexit
    i8 2, label %.loopexit
    i8 4, label %.loopexit
    i8 8, label %17
    i8 16, label %29
    i8 -128, label %29
    i8 32, label %40
    i8 64, label %50
  ]

17:                                               ; preds = %16
  %18 = getelementptr inbounds nuw i8, ptr %0, i64 48
  %19 = load double, ptr %18, align 8, !tbaa !17
  %20 = getelementptr inbounds nuw i8, ptr %1, i64 48
  %21 = load double, ptr %20, align 8, !tbaa !17
  %22 = tail call double @llvm.fabs.f64(double %19)
  %23 = tail call double @llvm.fabs.f64(double %21)
  %24 = fcmp ogt double %22, %23
  %..i = select i1 %24, double %22, double %23
  %25 = fsub double %19, %21
  %26 = tail call double @llvm.fabs.f64(double %25)
  %27 = fmul double %..i, 0x3CB0000000000000
  %28 = fcmp ole double %26, %27
  br label %.loopexit

29:                                               ; preds = %16, %16
  %30 = getelementptr inbounds nuw i8, ptr %0, i64 32
  %31 = load ptr, ptr %30, align 8, !tbaa !16
  %32 = icmp eq ptr %31, null
  br i1 %32, label %.loopexit, label %33

33:                                               ; preds = %29
  %34 = getelementptr inbounds nuw i8, ptr %1, i64 32
  %35 = load ptr, ptr %34, align 8, !tbaa !16
  %36 = icmp eq ptr %35, null
  br i1 %36, label %.loopexit, label %37

37:                                               ; preds = %33
  %38 = tail call i32 @strcmp(ptr noundef nonnull dereferenceable(1) %31, ptr noundef nonnull dereferenceable(1) %35) #32
  %39 = icmp eq i32 %38, 0
  br label %.loopexit

40:                                               ; preds = %16
  %41 = getelementptr inbounds nuw i8, ptr %0, i64 16
  %42 = getelementptr inbounds nuw i8, ptr %1, i64 16
  br label %43

43:                                               ; preds = %47, %40
  %.050.in = phi ptr [ %41, %40 ], [ %.050, %47 ]
  %.049.in = phi ptr [ %42, %40 ], [ %.049, %47 ]
  %.049 = load ptr, ptr %.049.in, align 8, !tbaa !53
  %.050 = load ptr, ptr %.050.in, align 8, !tbaa !53
  %44 = icmp ne ptr %.050, null
  %45 = icmp ne ptr %.049, null
  %46 = select i1 %44, i1 %45, i1 false
  br i1 %46, label %47, label %49

47:                                               ; preds = %43
  %48 = tail call i32 @cJSON_Compare(ptr noundef nonnull %.050, ptr noundef nonnull %.049, i32 noundef %2)
  %.not65 = icmp eq i32 %48, 0
  br i1 %.not65, label %.loopexit, label %43

49:                                               ; preds = %43
  %.not64 = icmp eq ptr %.050, %.049
  br label %.loopexit

50:                                               ; preds = %16
  %51 = getelementptr inbounds nuw i8, ptr %0, i64 16
  br label %52

52:                                               ; preds = %58, %50
  %.048.in = phi ptr [ %51, %50 ], [ %.048, %58 ]
  %.048 = load ptr, ptr %.048.in, align 8, !tbaa !53
  %.not60 = icmp eq ptr %.048, null
  br i1 %.not60, label %60, label %53

53:                                               ; preds = %52
  %54 = getelementptr inbounds nuw i8, ptr %.048, i64 56
  %55 = load ptr, ptr %54, align 8, !tbaa !26
  %56 = tail call fastcc ptr @get_object_item(ptr noundef %1, ptr noundef %55, i32 noundef %2)
  %57 = icmp eq ptr %56, null
  br i1 %57, label %.loopexit, label %58

58:                                               ; preds = %53
  %59 = tail call i32 @cJSON_Compare(ptr noundef nonnull %.048, ptr noundef nonnull %56, i32 noundef %2)
  %.not63 = icmp eq i32 %59, 0
  br i1 %.not63, label %.loopexit, label %52

60:                                               ; preds = %52
  %61 = getelementptr inbounds nuw i8, ptr %1, i64 16
  br label %62

62:                                               ; preds = %68, %60
  %.0.in = phi ptr [ %61, %60 ], [ %.0, %68 ]
  %.0 = load ptr, ptr %.0.in, align 8, !tbaa !53
  %.not61 = icmp eq ptr %.0, null
  br i1 %.not61, label %.loopexit, label %63

63:                                               ; preds = %62
  %64 = getelementptr inbounds nuw i8, ptr %.0, i64 56
  %65 = load ptr, ptr %64, align 8, !tbaa !26
  %66 = tail call fastcc ptr @get_object_item(ptr noundef %0, ptr noundef %65, i32 noundef %2)
  %67 = icmp eq ptr %66, null
  br i1 %67, label %.loopexit, label %68

68:                                               ; preds = %63
  %69 = tail call i32 @cJSON_Compare(ptr noundef nonnull %.0, ptr noundef nonnull %66, i32 noundef %2)
  %.not62 = icmp eq i32 %69, 0
  br i1 %.not62, label %.loopexit, label %62

70:                                               ; preds = %16
  br label %.loopexit

.loopexit:                                        ; preds = %53, %58, %63, %68, %62, %47, %49, %37, %29, %33, %17, %16, %16, %16, %14, %13, %3, %6, %70
  %.051.shrunk = phi i1 [ false, %70 ], [ false, %6 ], [ false, %3 ], [ false, %13 ], [ true, %14 ], [ true, %16 ], [ true, %16 ], [ true, %16 ], [ %28, %17 ], [ false, %33 ], [ false, %29 ], [ %39, %37 ], [ %.not64, %49 ], [ false, %47 ], [ %.not61, %62 ], [ %.not61, %68 ], [ %.not61, %63 ], [ false, %58 ], [ false, %53 ]
  %.051 = zext i1 %.051.shrunk to i32
  ret i32 %.051
}